; Function Attrs: nounwind uwtable
define internal void @locale_free(ptr noundef %0) #0 {
  %2 = tail call ptr @PyModule_GetState(ptr noundef %0) #8
  %3 = load ptr, ptr %2, align 8, !tbaa !10
  %.not.i = icmp eq ptr %3, null
  br i1 %.not.i, label %locale_clear.exit, label %4

4:                                                ; preds = %1
  store ptr null, ptr %2, align 8, !tbaa !10
  %5 = load i32, ptr %3, align 8, !tbaa !11
  %.not.i.i = icmp sgt i32 %5, -1
  br i1 %.not.i.i, label %6, label %locale_clear.exit

6:                                                ; preds = %4
  %7 = add nsw i32 %5, -1
  store i32 %7, ptr %3, align 8, !tbaa !11
  %8 = icmp eq i32 %7, 0
  br i1 %8, label %9, label %locale_clear.exit

9:                                                ; preds = %6
  tail call void @_Py_Dealloc(ptr noundef nonnull %3) #8
  br label %locale_clear.exit

locale_clear.exit:                                ; preds = %1, %4, %6, %9
  ret void
}